target datalayout = "e-m:e-p270:32:32-p271:32:32-p272:64:64-i64:64-i128:128-f80:128-n8:16:32:64-S128"
target triple = "x86_64-pc-linux-gnu"

%"class.cv::xfeatures2d::GMSMatcher" = type { %"class.std::vector", %"class.std::vector", %"class.std::vector.0", i64, %"class.cv::Size_", %"class.cv::Size_", i32, i32, %"class.cv::Mat", %"class.std::vector.5", %"class.std::vector.5", %"class.std::vector.0", %"class.std::vector.10", %"class.cv::Mat", %"class.cv::Mat", double }
%"class.std::vector" = type { %"struct.std::_Vector_base" }
%"struct.std::_Vector_base" = type { %"struct.std::_Vector_base<cv::Point_<float>, std::allocator<cv::Point_<float>>>::_Vector_impl" }
%"struct.std::_Vector_base<cv::Point_<float>, std::allocator<cv::Point_<float>>>::_Vector_impl" = type { %"struct.std::_Vector_base<cv::Point_<float>, std::allocator<cv::Point_<float>>>::_Vector_impl_data" }
%"struct.std::_Vector_base<cv::Point_<float>, std::allocator<cv::Point_<float>>>::_Vector_impl_data" = type { ptr, ptr, ptr }
%"class.cv::Size_" = type { i32, i32 }
%"class.std::vector.5" = type { %"struct.std::_Vector_base.6" }
%"struct.std::_Vector_base.6" = type { %"struct.std::_Vector_base<int, std::allocator<int>>::_Vector_impl" }
%"struct.std::_Vector_base<int, std::allocator<int>>::_Vector_impl" = type { %"struct.std::_Vector_base<int, std::allocator<int>>::_Vector_impl_data" }
%"struct.std::_Vector_base<int, std::allocator<int>>::_Vector_impl_data" = type { ptr, ptr, ptr }
%"class.std::vector.0" = type { %"struct.std::_Vector_base.1" }
%"struct.std::_Vector_base.1" = type { %"struct.std::_Vector_base<std::pair<int, int>, std::allocator<std::pair<int, int>>>::_Vector_impl" }
%"struct.std::_Vector_base<std::pair<int, int>, std::allocator<std::pair<int, int>>>::_Vector_impl" = type { %"struct.std::_Vector_base<std::pair<int, int>, std::allocator<std::pair<int, int>>>::_Vector_impl_data" }
%"struct.std::_Vector_base<std::pair<int, int>, std::allocator<std::pair<int, int>>>::_Vector_impl_data" = type { ptr, ptr, ptr }
%"class.std::vector.10" = type { %"struct.std::_Bvector_base" }
%"struct.std::_Bvector_base" = type { %"struct.std::_Bvector_base<std::allocator<bool>>::_Bvector_impl" }
%"struct.std::_Bvector_base<std::allocator<bool>>::_Bvector_impl" = type { %"struct.std::_Bvector_base<std::allocator<bool>>::_Bvector_impl_data" }
%"struct.std::_Bvector_base<std::allocator<bool>>::_Bvector_impl_data" = type { %"struct.std::_Bit_iterator", %"struct.std::_Bit_iterator", ptr }
%"struct.std::_Bit_iterator" = type { %"struct.std::_Bit_iterator_base.base", [4 x i8] }
%"struct.std::_Bit_iterator_base.base" = type <{ ptr, i32 }>
%"class.cv::Mat" = type { i32, i32, i32, i32, ptr, ptr, ptr, ptr, ptr, ptr, %"struct.cv::MatSize", %"struct.cv::MatStep" }
%"struct.cv::MatSize" = type { ptr }
%"struct.cv::MatStep" = type { ptr, [2 x i64] }
%"class.cv::Point_" = type { float, float }

; Function Attrs: inlinehint mustprogress nounwind uwtable
define internal noundef i32 @_ZL7cvFloord(double noundef %0) #5 {
  %2 = alloca double, align 8
  store double %0, ptr %2, align 8, !tbaa !3
  %3 = load double, ptr %2, align 8, !tbaa !3
  %4 = call double @llvm.floor.f64(double %3)
  %5 = fptosi double %4 to i32
  ret i32 %5
}

; Function Attrs: inlinehint mustprogress nounwind uwtable
define internal noundef i32 @_ZL7cvFloorf(float noundef %0) #5 {
  %2 = alloca float, align 4
  store float %0, ptr %2, align 4, !tbaa !80
  %3 = load float, ptr %2, align 4, !tbaa !80
  %4 = call float @llvm.floor.f32(float %3)
  %5 = fptosi float %4 to i32
  ret i32 %5
}

; Function Attrs: mustprogress uwtable
define hidden noundef i32 @_ZN2cv11xfeatures2d10GMSMatcher16getGridIndexLeftERKNS_6Point_IfEEi(ptr noundef nonnull align 8 dereferenceable(512) %0, ptr noundef nonnull align 4 dereferenceable(8) %1, i32 noundef %2) #3 align 2 {
  %4 = alloca i32, align 4
  %5 = alloca ptr, align 8
  %6 = alloca ptr, align 8
  %7 = alloca i32, align 4
  %8 = alloca i32, align 4
  %9 = alloca i32, align 4
  %10 = alloca i32, align 4
  store ptr %0, ptr %5, align 8, !tbaa !9
  store ptr %1, ptr %6, align 8, !tbaa !47
  store i32 %2, ptr %7, align 4, !tbaa !7
  %11 = load ptr, ptr %5, align 8
  call void @llvm.lifetime.start.p0(i64 4, ptr %8) #18
  store i32 0, ptr %8, align 4, !tbaa !7
  call void @llvm.lifetime.start.p0(i64 4, ptr %9) #18
  store i32 0, ptr %9, align 4, !tbaa !7
  %12 = load i32, ptr %7, align 4, !tbaa !7
  %13 = icmp eq i32 %12, 1
  br i1 %13, label %14, label %33

14:                                               ; preds = %3
  %15 = load ptr, ptr %6, align 8, !tbaa !47
  %16 = getelementptr inbounds nuw %"class.cv::Point_", ptr %15, i32 0, i32 0
  %17 = load float, ptr %16, align 4, !tbaa !57
  %18 = getelementptr inbounds nuw %"class.cv::xfeatures2d::GMSMatcher", ptr %11, i32 0, i32 4
  %19 = getelementptr inbounds nuw %"class.cv::Size_", ptr %18, i32 0, i32 0
  %20 = load i32, ptr %19, align 8, !tbaa !60
  %21 = sitofp i32 %20 to float
  %22 = fmul float %17, %21
  %23 = call noundef i32 @_ZL7cvFloorf(float noundef %22)
  store i32 %23, ptr %8, align 4, !tbaa !7
  %24 = load ptr, ptr %6, align 8, !tbaa !47
  %25 = getelementptr inbounds nuw %"class.cv::Point_", ptr %24, i32 0, i32 1
  %26 = load float, ptr %25, align 4, !tbaa !61
  %27 = getelementptr inbounds nuw %"class.cv::xfeatures2d::GMSMatcher", ptr %11, i32 0, i32 4
  %28 = getelementptr inbounds nuw %"class.cv::Size_", ptr %27, i32 0, i32 1
  %29 = load i32, ptr %28, align 4, !tbaa !62
  %30 = sitofp i32 %29 to float
  %31 = fmul float %26, %30
  %32 = call noundef i32 @_ZL7cvFloorf(float noundef %31)
  store i32 %32, ptr %9, align 4, !tbaa !7
  br label %33

33:                                               ; preds = %14, %3
  %34 = load i32, ptr %7, align 4, !tbaa !7
  %35 = icmp eq i32 %34, 2
  br i1 %35, label %36, label %57

36:                                               ; preds = %33
  %37 = load ptr, ptr %6, align 8, !tbaa !47
  %38 = getelementptr inbounds nuw %"class.cv::Point_", ptr %37, i32 0, i32 0
  %39 = load float, ptr %38, align 4, !tbaa !57
  %40 = getelementptr inbounds nuw %"class.cv::xfeatures2d::GMSMatcher", ptr %11, i32 0, i32 4
  %41 = getelementptr inbounds nuw %"class.cv::Size_", ptr %40, i32 0, i32 0
  %42 = load i32, ptr %41, align 8, !tbaa !60
  %43 = sitofp i32 %42 to float
  %44 = fmul float %39, %43
  %45 = fpext float %44 to double
  %46 = fadd double %45, 5.000000e-01
  %47 = call noundef i32 @_ZL7cvFloord(double noundef %46)
  store i32 %47, ptr %8, align 4, !tbaa !7
  %48 = load ptr, ptr %6, align 8, !tbaa !47
  %49 = getelementptr inbounds nuw %"class.cv::Point_", ptr %48, i32 0, i32 1
  %50 = load float, ptr %49, align 4, !tbaa !61
  %51 = getelementptr inbounds nuw %"class.cv::xfeatures2d::GMSMatcher", ptr %11, i32 0, i32 4
  %52 = getelementptr inbounds nuw %"class.cv::Size_", ptr %51, i32 0, i32 1
  %53 = load i32, ptr %52, align 4, !tbaa !62
  %54 = sitofp i32 %53 to float
  %55 = fmul float %50, %54
  %56 = call noundef i32 @_ZL7cvFloorf(float noundef %55)
  store i32 %56, ptr %9, align 4, !tbaa !7
  br label %57

57:                                               ; preds = %36, %33
  %58 = load i32, ptr %7, align 4, !tbaa !7
  %59 = icmp eq i32 %58, 3
  br i1 %59, label %60, label %81

60:                                               ; preds = %57
  %61 = load ptr, ptr %6, align 8, !tbaa !47
  %62 = getelementptr inbounds nuw %"class.cv::Point_", ptr %61, i32 0, i32 0
  %63 = load float, ptr %62, align 4, !tbaa !57
  %64 = getelementptr inbounds nuw %"class.cv::xfeatures2d::GMSMatcher", ptr %11, i32 0, i32 4
  %65 = getelementptr inbounds nuw %"class.cv::Size_", ptr %64, i32 0, i32 0
  %66 = load i32, ptr %65, align 8, !tbaa !60
  %67 = sitofp i32 %66 to float
  %68 = fmul float %63, %67
  %69 = call noundef i32 @_ZL7cvFloorf(float noundef %68)
  store i32 %69, ptr %8, align 4, !tbaa !7
  %70 = load ptr, ptr %6, align 8, !tbaa !47
  %71 = getelementptr inbounds nuw %"class.cv::Point_", ptr %70, i32 0, i32 1
  %72 = load float, ptr %71, align 4, !tbaa !61
  %73 = getelementptr inbounds nuw %"class.cv::xfeatures2d::GMSMatcher", ptr %11, i32 0, i32 4
  %74 = getelementptr inbounds nuw %"class.cv::Size_", ptr %73, i32 0, i32 1
  %75 = load i32, ptr %74, align 4, !tbaa !62
  %76 = sitofp i32 %75 to float
  %77 = fmul float %72, %76
  %78 = fpext float %77 to double
  %79 = fadd double %78, 5.000000e-01
  %80 = call noundef i32 @_ZL7cvFloord(double noundef %79)
  store i32 %80, ptr %9, align 4, !tbaa !7
  br label %81

81:                                               ; preds = %60, %57
  %82 = load i32, ptr %7, align 4, !tbaa !7
  %83 = icmp eq i32 %82, 4
  br i1 %83, label %84, label %107

84:                                               ; preds = %81
  %85 = load ptr, ptr %6, align 8, !tbaa !47
  %86 = getelementptr inbounds nuw %"class.cv::Point_", ptr %85, i32 0, i32 0
  %87 = load float, ptr %86, align 4, !tbaa !57
  %88 = getelementptr inbounds nuw %"class.cv::xfeatures2d::GMSMatcher", ptr %11, i32 0, i32 4
  %89 = getelementptr inbounds nuw %"class.cv::Size_", ptr %88, i32 0, i32 0
  %90 = load i32, ptr %89, align 8, !tbaa !60
  %91 = sitofp i32 %90 to float
  %92 = fmul float %87, %91
  %93 = fpext float %92 to double
  %94 = fadd double %93, 5.000000e-01
  %95 = call noundef i32 @_ZL7cvFloord(double noundef %94)
  store i32 %95, ptr %8, align 4, !tbaa !7
  %96 = load ptr, ptr %6, align 8, !tbaa !47
  %97 = getelementptr inbounds nuw %"class.cv::Point_", ptr %96, i32 0, i32 1
  %98 = load float, ptr %97, align 4, !tbaa !61
  %99 = getelementptr inbounds nuw %"class.cv::xfeatures2d::GMSMatcher", ptr %11, i32 0, i32 4
  %100 = getelementptr inbounds nuw %"class.cv::Size_", ptr %99, i32 0, i32 1
  %101 = load i32, ptr %100, align 4, !tbaa !62
  %102 = sitofp i32 %101 to float
  %103 = fmul float %98, %102
  %104 = fpext float %103 to double
  %105 = fadd double %104, 5.000000e-01
  %106 = call noundef i32 @_ZL7cvFloord(double noundef %105)
  store i32 %106, ptr %9, align 4, !tbaa !7
  br label %107

107:                                              ; preds = %84, %81
  %108 = load i32, ptr %8, align 4, !tbaa !7
  %109 = getelementptr inbounds nuw %"class.cv::xfeatures2d::GMSMatcher", ptr %11, i32 0, i32 4
  %110 = getelementptr inbounds nuw %"class.cv::Size_", ptr %109, i32 0, i32 0
  %111 = load i32, ptr %110, align 8, !tbaa !60
  %112 = icmp sge i32 %108, %111
  br i1 %112, label %119, label %113

113:                                              ; preds = %107
  %114 = load i32, ptr %9, align 4, !tbaa !7
  %115 = getelementptr inbounds nuw %"class.cv::xfeatures2d::GMSMatcher", ptr %11, i32 0, i32 4
  %116 = getelementptr inbounds nuw %"class.cv::Size_", ptr %115, i32 0, i32 1
  %117 = load i32, ptr %116, align 4, !tbaa !62
  %118 = icmp sge i32 %114, %117
  br i1 %118, label %119, label %120

119:                                              ; preds = %113, %107
  store i32 -1, ptr %4, align 4
  store i32 1, ptr %10, align 4
  br label %128

120:                                              ; preds = %113
  %121 = load i32, ptr %8, align 4, !tbaa !7
  %122 = load i32, ptr %9, align 4, !tbaa !7
  %123 = getelementptr inbounds nuw %"class.cv::xfeatures2d::GMSMatcher", ptr %11, i32 0, i32 4
  %124 = getelementptr inbounds nuw %"class.cv::Size_", ptr %123, i32 0, i32 0
  %125 = load i32, ptr %124, align 8, !tbaa !60
  %126 = mul nsw i32 %122, %125
  %127 = add nsw i32 %121, %126
  store i32 %127, ptr %4, align 4
  store i32 1, ptr %10, align 4
  br label %128

128:                                              ; preds = %120, %119
  call void @llvm.lifetime.end.p0(i64 4, ptr %9) #18
  call void @llvm.lifetime.end.p0(i64 4, ptr %8) #18
  %129 = load i32, ptr %4, align 4
  ret i32 %129
}