; Function Attrs: mustprogress nofree norecurse nosync nounwind willreturn memory(argmem: read) uwtable
define hidden noundef i32 @_ZN2cv11xfeatures2d10GMSMatcher16getGridIndexLeftERKNS_6Point_IfEEi(ptr noundef nonnull readonly align 8 captures(none) dereferenceable(512) %0, ptr noundef nonnull readonly align 4 captures(none) dereferenceable(8) %1, i32 noundef %2) local_unnamed_addr #3 align 2 {
  switch i32 %2, label %..thread31_crit_edge [
    i32 1, label %.thread
    i32 2, label %19
    i32 3, label %37
    i32 4, label %55
  ]

..thread31_crit_edge:                             ; preds = %3
  %.phi.trans.insert = getelementptr inbounds nuw i8, ptr %0, i64 80
  %.pre = load i32, ptr %.phi.trans.insert, align 8, !tbaa !55
  %.phi.trans.insert34 = getelementptr inbounds nuw i8, ptr %0, i64 84
  %.pre35 = load i32, ptr %.phi.trans.insert34, align 4
  br label %.thread31

.thread:                                          ; preds = %3
  %4 = load float, ptr %1, align 4, !tbaa !45
  %5 = getelementptr inbounds nuw i8, ptr %0, i64 80
  %6 = load i32, ptr %5, align 8, !tbaa !55
  %7 = sitofp i32 %6 to float
  %8 = fmul float %4, %7
  %9 = tail call float @llvm.floor.f32(float %8)
  %10 = fptosi float %9 to i32
  %11 = getelementptr inbounds nuw i8, ptr %1, i64 4
  %12 = load float, ptr %11, align 4, !tbaa !49
  %13 = getelementptr inbounds nuw i8, ptr %0, i64 84
  %14 = load i32, ptr %13, align 4, !tbaa !56
  %15 = sitofp i32 %14 to float
  %16 = fmul float %12, %15
  %17 = tail call float @llvm.floor.f32(float %16)
  %18 = fptosi float %17 to i32
  br label %.thread31

19:                                               ; preds = %3
  %20 = load float, ptr %1, align 4, !tbaa !45
  %21 = getelementptr inbounds nuw i8, ptr %0, i64 80
  %22 = load i32, ptr %21, align 8, !tbaa !55
  %23 = sitofp i32 %22 to float
  %24 = fmul float %20, %23
  %25 = fpext float %24 to double
  %26 = fadd double %25, 5.000000e-01
  %27 = tail call double @llvm.floor.f64(double %26)
  %28 = fptosi double %27 to i32
  %29 = getelementptr inbounds nuw i8, ptr %1, i64 4
  %30 = load float, ptr %29, align 4, !tbaa !49
  %31 = getelementptr inbounds nuw i8, ptr %0, i64 84
  %32 = load i32, ptr %31, align 4, !tbaa !56
  %33 = sitofp i32 %32 to float
  %34 = fmul float %30, %33
  %35 = tail call float @llvm.floor.f32(float %34)
  %36 = fptosi float %35 to i32
  br label %.thread31

37:                                               ; preds = %3
  %38 = load float, ptr %1, align 4, !tbaa !45
  %39 = getelementptr inbounds nuw i8, ptr %0, i64 80
  %40 = load i32, ptr %39, align 8, !tbaa !55
  %41 = sitofp i32 %40 to float
  %42 = fmul float %38, %41
  %43 = tail call float @llvm.floor.f32(float %42)
  %44 = fptosi float %43 to i32
  %45 = getelementptr inbounds nuw i8, ptr %1, i64 4
  %46 = load float, ptr %45, align 4, !tbaa !49
  %47 = getelementptr inbounds nuw i8, ptr %0, i64 84
  %48 = load i32, ptr %47, align 4, !tbaa !56
  %49 = sitofp i32 %48 to float
  %50 = fmul float %46, %49
  %51 = fpext float %50 to double
  %52 = fadd double %51, 5.000000e-01
  %53 = tail call double @llvm.floor.f64(double %52)
  %54 = fptosi double %53 to i32
  br label %.thread31

55:                                               ; preds = %3
  %56 = load float, ptr %1, align 4, !tbaa !45
  %57 = getelementptr inbounds nuw i8, ptr %0, i64 80
  %58 = load i32, ptr %57, align 8, !tbaa !55
  %59 = sitofp i32 %58 to float
  %60 = fmul float %56, %59
  %61 = fpext float %60 to double
  %62 = fadd double %61, 5.000000e-01
  %63 = tail call double @llvm.floor.f64(double %62)
  %64 = fptosi double %63 to i32
  %65 = getelementptr inbounds nuw i8, ptr %1, i64 4
  %66 = load float, ptr %65, align 4, !tbaa !49
  %67 = getelementptr inbounds nuw i8, ptr %0, i64 84
  %68 = load i32, ptr %67, align 4, !tbaa !56
  %69 = sitofp i32 %68 to float
  %70 = fmul float %66, %69
  %71 = fpext float %70 to double
  %72 = fadd double %71, 5.000000e-01
  %73 = tail call double @llvm.floor.f64(double %72)
  %74 = fptosi double %73 to i32
  br label %.thread31

.thread31:                                        ; preds = %..thread31_crit_edge, %19, %.thread, %37, %55
  %75 = phi i32 [ %68, %55 ], [ %48, %37 ], [ %14, %.thread ], [ %32, %19 ], [ %.pre35, %..thread31_crit_edge ]
  %76 = phi i32 [ %58, %55 ], [ %40, %37 ], [ %6, %.thread ], [ %22, %19 ], [ %.pre, %..thread31_crit_edge ]
  %.320 = phi i32 [ %64, %55 ], [ %44, %37 ], [ %10, %.thread ], [ %28, %19 ], [ 0, %..thread31_crit_edge ]
  %.3 = phi i32 [ %74, %55 ], [ %54, %37 ], [ %18, %.thread ], [ %36, %19 ], [ 0, %..thread31_crit_edge ]
  %.not = icmp slt i32 %.320, %76
  %.not23 = icmp slt i32 %.3, %75
  %or.cond = select i1 %.not, i1 %.not23, i1 false
  %77 = mul nsw i32 %76, %.3
  %78 = add nsw i32 %77, %.320
  %.021 = select i1 %or.cond, i32 %78, i32 -1
  ret i32 %.021
}